target datalayout = "e-m:e-p270:32:32-p271:32:32-p272:64:64-i64:64-i128:128-f80:128-n8:16:32:64-S128"
target triple = "x86_64-pc-linux-gnu"

; Function Attrs: nounwind uwtable
define internal ptr @LimitedVectorCallClass_new(ptr noundef %0, ptr noundef %1, ptr noundef %2) #0 {
  %4 = alloca ptr, align 8
  %5 = alloca ptr, align 8
  %6 = alloca ptr, align 8
  %7 = alloca ptr, align 8
  %8 = alloca ptr, align 8
  %9 = alloca i32, align 4
  store ptr %0, ptr %5, align 8, !tbaa !8
  store ptr %1, ptr %6, align 8, !tbaa !8
  store ptr %2, ptr %7, align 8, !tbaa !8
  call void @llvm.lifetime.start.p0(i64 8, ptr %8) #5
  %10 = load ptr, ptr %5, align 8, !tbaa !8
  %11 = call ptr @PyType_GetSlot(ptr noundef %10, i32 noundef 47)
  %12 = load ptr, ptr %5, align 8, !tbaa !8
  %13 = call ptr %11(ptr noundef %12, i64 noundef 0)
  store ptr %13, ptr %8, align 8, !tbaa !3
  %14 = load ptr, ptr %8, align 8, !tbaa !3
  %15 = icmp ne ptr %14, null
  br i1 %15, label %17, label %16

16:                                               ; preds = %3
  store ptr null, ptr %4, align 8
  store i32 1, ptr %9, align 4
  br label %21

17:                                               ; preds = %3
  %18 = load ptr, ptr %8, align 8, !tbaa !3
  %19 = getelementptr i8, ptr %18, i64 16
  store ptr @LimitedVectorCallClass_vectorcall, ptr %19, align 8, !tbaa !10
  %20 = load ptr, ptr %8, align 8, !tbaa !3
  store ptr %20, ptr %4, align 8
  store i32 1, ptr %9, align 4
  br label %21

21:                                               ; preds = %17, %16
  call void @llvm.lifetime.end.p0(i64 8, ptr %8) #5
  %22 = load ptr, ptr %4, align 8
  ret ptr %22
}